; Function Attrs: mustprogress nounwind uwtable
define internal fastcc void @_ZN12_GLOBAL__N_123MicrosoftCXXNameMangler10mangleTypeEPKN5clang24DependentSizedMatrixTypeENS1_10QualifiersENS1_11SourceRangeE(ptr %.0.val.16.val, i64 %0) unnamed_addr #0 align 2 {
  %2 = alloca %"class.clang::CharSourceRange", align 8
  %3 = alloca %"class.clang::DiagnosticBuilder", align 8
  %.sroa.01.0.extract.trunc = trunc i64 %0 to i32
  call fastcc void @_ZN12_GLOBAL__N_123MicrosoftCXXNameMangler5ErrorEN5clang14SourceLocationEN4llvm9StringRefE(ptr dead_on_unwind noalias nonnull writable align 8 %3, ptr %.0.val.16.val, i32 %.sroa.01.0.extract.trunc, ptr nonnull @.str.142, i64 27)
  call void @llvm.lifetime.start.p0(i64 12, ptr nonnull %2)
  store i64 %0, ptr %2, align 8
  %.sroa.2.0..sroa_idx.i.i = getelementptr inbounds i8, ptr %2, i64 8
  store i8 1, ptr %.sroa.2.0..sroa_idx.i.i, align 8
  call void @_ZNK5clang19StreamingDiagnostic14AddSourceRangeERKNS_15CharSourceRangeE(ptr noundef nonnull align 8 dereferenceable(16) %3, ptr noundef nonnull align 4 dereferenceable(9) %2)
  call void @llvm.lifetime.end.p0(i64 12, ptr nonnull %2)
  %4 = getelementptr inbounds nuw i8, ptr %3, i64 24
  %5 = load i8, ptr %4, align 8
  %6 = trunc i8 %5 to i1
  br i1 %6, label %7, label %_ZN5clang17DiagnosticBuilder4EmitEv.exit.i

7:                                                ; preds = %1
  %8 = getelementptr inbounds nuw i8, ptr %3, i64 16
  %9 = load ptr, ptr %8, align 8
  %10 = getelementptr inbounds nuw i8, ptr %3, i64 25
  %11 = load i8, ptr %10, align 1
  %12 = trunc i8 %11 to i1
  %13 = call noundef zeroext i1 @_ZN5clang17DiagnosticsEngine21EmitCurrentDiagnosticEb(ptr noundef nonnull align 8 dereferenceable(1304) %9, i1 noundef zeroext %12) #21
  store ptr null, ptr %8, align 8
  store i8 0, ptr %4, align 8
  store i8 0, ptr %10, align 1
  br label %_ZN5clang17DiagnosticBuilder4EmitEv.exit.i

_ZN5clang17DiagnosticBuilder4EmitEv.exit.i:       ; preds = %7, %1
  %14 = load ptr, ptr %3, align 8
  %.not.i.i.i = icmp eq ptr %14, null
  br i1 %.not.i.i.i, label %_ZN5clang17DiagnosticBuilderD2Ev.exit, label %15

15:                                               ; preds = %_ZN5clang17DiagnosticBuilder4EmitEv.exit.i
  %16 = getelementptr inbounds nuw i8, ptr %3, i64 8
  %17 = load ptr, ptr %16, align 8
  %.not.i.i.i.i = icmp eq ptr %17, null
  br i1 %.not.i.i.i.i, label %_ZN5clang17DiagnosticBuilderD2Ev.exit, label %18

18:                                               ; preds = %15
  %19 = icmp uge ptr %14, %17
  %20 = getelementptr inbounds i8, ptr %17, i64 14848
  %21 = icmp ule ptr %14, %20
  %or.cond.i.i.i.i.i = select i1 %19, i1 %21, i1 false
  br i1 %or.cond.i.i.i.i.i, label %22, label %28

22:                                               ; preds = %18
  %23 = getelementptr inbounds nuw i8, ptr %17, i64 14976
  %24 = load i32, ptr %23, align 8
  %25 = add i32 %24, 1
  store i32 %25, ptr %23, align 8
  %26 = zext i32 %24 to i64
  %27 = getelementptr inbounds [16 x ptr], ptr %20, i64 0, i64 %26
  store ptr %14, ptr %27, align 8
  br label %_ZN5clang17DiagnosticBuilderD2Ev.exit

28:                                               ; preds = %18
  call void @_ZN5clang17DiagnosticStorageD2Ev(ptr noundef nonnull align 8 dereferenceable(928) %14) #21
  call void @_ZdlPvm(ptr noundef nonnull %14, i64 noundef 928) #22
  br label %_ZN5clang17DiagnosticBuilderD2Ev.exit

_ZN5clang17DiagnosticBuilderD2Ev.exit:            ; preds = %22, %28, %_ZN5clang17DiagnosticBuilder4EmitEv.exit.i, %15
  ret void
}